ccopy_reg
_reconstructor
p0
(clightgbm.sklearn
LGBMRegressor
p1
c__builtin__
object
p2
Ntp3
Rp4
(dp5
S'num_leaves'
p6
I31
sS'reg_alpha'
p7
F0.0
sS'n_jobs'
p8
I-1
sS'_evals_result'
p9
(dp10
S'valid_0'
p11
ccollections
defaultdict
p12
(c__builtin__
list
p13
tp14
Rp15
Vl2
p16
(lp17
cnumpy.core.multiarray
scalar
p18
(cnumpy
dtype
p19
(S'f8'
p20
I0
I1
tp21
Rp22
(I3
S'<'
p23
NNNI-1
I-1
I0
tp24
bS'q\xac*9\x95 \xd2@'
p25
tp26
Rp27
ag18
(g22
S'\xd5\x9b\x8b\xea\xfa\\\xd0@'
p28
tp29
Rp30
ag18
(g22
S'\xb2\xac)O\xa0\x89\xcd@'
p31
tp32
Rp33
ag18
(g22
S'\xdc&]Z8\xa9\xca@'
p34
tp35
Rp36
ag18
(g22
S'V#fl\x8f\x10\xc8@'
p37
tp38
Rp39
ag18
(g22
S'j\x84\xa2\xfd\x14\xb8\xc5@'
p40
tp41
Rp42
ag18
(g22
S'\x0c\xac\x1d\xa7X\x9a\xc3@'
p43
tp44
Rp45
ag18
(g22
S'\xe1M{\xf3k\xb1\xc1@'
p46
tp47
Rp48
ag18
(g22
S'|\xd164}\xf1\xbf@'
p49
tp50
Rp51
ag18
(g22
S'\x1e\xcb\x82\xf9\xb5\xd4\xbc@'
p52
tp53
Rp54
ag18
(g22
S'Q\x19\\\xa3\x0c\x06\xba@'
p55
tp56
Rp57
ag18
(g22
S'i\xac\xd7\xad,}\xb7@'
p58
tp59
Rp60
ag18
(g22
S'9\xc3\x87\xd7a3\xb5@'
p61
tp62
Rp63
ag18
(g22
S'&\xcf\xabY\xad"\xb3@'
p64
tp65
Rp66
ag18
(g22
S'\xf0\xebRp\x01F\xb1@'
p67
tp68
Rp69
ag18
(g22
S'G\x05-\xac\x90.\xaf@'
p70
tp71
Rp72
ag18
(g22
S'h\x00\xd9\xaf\xfb%\xac@'
p73
tp74
Rp75
ag18
(g22
S'Y\x93\xeb\xa0Uh\xa9@'
p76
tp77
Rp78
ag18
(g22
S'@\x97\xd1\xd5B\xef\xa6@'
p79
tp80
Rp81
ag18
(g22
S'\xa7\xbc\xe2\x03]\xb4\xa4@'
p82
tp83
Rp84
asVl1
p85
(lp86
g18
(g22
S'\x88\xbe\xda\xa7\xf8VW@'
p87
tp88
Rp89
ag18
(g22
S'\x94\xf4O;\x85,V@'
p90
tp91
Rp92
ag18
(g22
S'\xbcx2\xe43\x11U@'
p93
tp94
Rp95
ag18
(g22
S'.\x84cF\xb7\x03T@'
p96
tp97
Rp98
ag18
(g22
S'\x01\xa5\xaf\x19\xb8\x03S@'
p99
tp100
Rp101
ag18
(g22
S'\x7f\xecWhK\x10R@'
p102
tp103
Rp104
ag18
(g22
S'\x97\x90\x7f\x18))Q@'
p105
tp106
Rp107
ag18
(g22
S'\x98\x00\x9c\xb0\x93MP@'
p108
tp109
Rp110
ag18
(g22
S'\x86E<\xef%\xfaN@'
p111
tp112
Rp113
ag18
(g22
S'&\xea\x8b~\xd4mM@'
p114
tp115
Rp116
ag18
(g22
S'h\x9cEB\\\xf5K@'
p117
tp118
Rp119
ag18
(g22
S'P\xab\xd3\x8a\x99\x8fJ@'
p120
tp121
Rp122
ag18
(g22
S'\x02\xc7\x9b\xcb\x94;I@'
p123
tp124
Rp125
ag18
(g22
S'\xc0\x98\xbc\xf5\x97\xf8G@'
p126
tp127
Rp128
ag18
(g22
S'\xa4\xd5rV\xea\xc5F@'
p129
tp130
Rp131
ag18
(g22
S'E\xd5\x12\xf2h\xa2E@'
p132
tp133
Rp134
ag18
(g22
S'\xae\xe0\xac]\xc9\x8dD@'
p135
tp136
Rp137
ag18
(g22
S'U\xc8X+\xa7\x86C@'
p138
tp139
Rp140
ag18
(g22
S'\xcd2\x11\x10\xd0\x8cB@'
p141
tp142
Rp143
ag18
(g22
S'\x9d\xa3\xa8\x01\x85\x9fA@'
p144
tp145
Rp146
asssS'_fobj'
p147
NsS'_Booster'
p148
g0
(clightgbm.basic
Booster
p149
g2
Ntp150
Rp151
(dp152
S'_Booster__is_predicted_cur_iter'
p153
(lp154
sS'_Booster__inner_predict_buffer'
p155
(lp156
sS'_Booster__attr'
p157
(dp158
sS'_Booster__higher_better_inner_eval'
p159
(lp160
I00
aI00
asS'best_iteration'
p161
I20
sS'_Booster__init_predictor'
p162
NsS'best_score'
p163
g12
(c__builtin__
dict
p164
tp165
Rp166
g11
(dp167
g16
g84
sg85
g146
sssS'handle'
p168
Vtree\u000aversion=v2\u000anum_class=1\u000anum_tree_per_iteration=1\u000alabel_index=0\u000amax_feature_idx=7\u000aobjective=regression\u000afeature_names=daynumber hour dayofweek mintemp maxtemp rain label zone_id\u000afeature_infos=[1:149] [0:23] [1:7] [3:63] [16:89.099999999999994] [0:1.3999999999999999] [1:1425] [1:263]\u000atree_sizes=2519 2536 2536 2534 2539 2532 2536 2534 2533 2518 2519 2506 2501 2504 2508 2488 2491 2486 2492 2470\u000a\u000aTree=0\u000anum_leaves=31\u000anum_cat=0\u000asplit_feature=6 6 6 6 6 6 6 6 6 6 6 6 6 6 6 6 6 6 6 6 6 6 6 6 2 6 6 6 6 6\u000asplit_gain=5.50894e+09 8.68951e+08 5.25486e+08 1.59701e+08 1.5727e+08 4.83415e+07 4.247e+07 2.48283e+07 2.20353e+07 2.17471e+07 2.07881e+07 6.01512e+06 5.46621e+06 5.05917e+06 4.50732e+06 4.48892e+06 3.98967e+06 2.91179e+06 2.90655e+06 2.7528e+06 2.67498e+06 2.56407e+06 2.42494e+06 815091 794802 727060 699640 698728 556438 552128\u000athreshold=202.50000000000003 468.50000000000006 69.500000000000014 686.50000000000011 321.50000000000006 131.50000000000003 23.500000000000004 861.50000000000011 566.50000000000011 391.50000000000006 259.50000000000006 165.50000000000003 99.500000000000014 8.5000000000000018 44.500000000000007 969.50000000000011 764.50000000000011 356.50000000000006 515.50000000000011 624.50000000000011 291.50000000000006 430.50000000000006 229.50000000000003 183.50000000000003 1.5000000000000002 84.500000000000014 115.50000000000001 147.50000000000003 33.500000000000007 56.500000000000007\u000adecision_type=2 2 2 2 2 2 2 2 2 2 2 2 2 2 2 2 2 2 2 2 2 2 2 2 2 2 2 2 2 2\u000aleft_child=2 4 6 8 10 12 13 16 18 17 22 27 25 -1 28 -9 -5 -6 -3 -10 -12 -11 -2 -13 -17 -4 -14 -7 -8 -16\u000aright_child=1 3 5 7 9 11 14 15 19 21 20 23 26 -15 29 24 -18 -19 -20 -21 -22 -23 -24 -25 -26 -27 -28 -29 -30 -31\u000aleaf_value=71.997434538078039 82.673793016504433 96.403930676378366 75.720669522089182 108.06415556898489 88.793979790688638 78.84673992839474 73.283648736252658 117.25134995765767 101.54379253305156 92.39944741977942 85.639259979948832 80.600269023799626 77.243667333503254 72.600501590755258 74.392668272162467 130.12232487140284 112.33781855850138 90.540981269397108 98.85351970102144 104.6015758134691 87.196299899887336 94.316934182764385 84.077672108202108 81.521915311463971 123.48099055843187 76.479082956608039 78.052555523104189 79.695919075492682 73.817038073820498 75.022784627580194\u000aleaf_count=192595 6173 2883 6612 1248 5203 4654 11131 613 1714 3934 5979 4873 5812 42440 7347 55 971 4404 2088 1290 5121 3131 6131 4725 249 6053 4950 5052 8720 6599\u000ainternal_value=0 304.035 -49.9502 551.482 235.43 53.0591 -66.3236 742.668 476.303 309.652 182.558 90.1121 22.5273 -71.0898 -33.1778 881.082 685.469 278.68 435.441 543.921 213.936 351.768 154.25 107.863 980.435 8.44641 39.098 72.5584 -42.8573 -19.3998\u000ainternal_count=362750 51187 311563 11111 40076 42731 268832 3136 7975 16672 23404 19304 23427 235035 33797 917 2219 9607 4971 3004 11100 7065 12304 9598 304 12665 10762 9706 19851 13946\u000ashrinkage=1\u000a\u000a\u000aTree=1\u000anum_leaves=31\u000anum_cat=0\u000asplit_feature=6 6 6 6 6 6 6 6 6 6 6 6 6 6 6 6 6 6 6 6 6 6 6 6 6 2 6 6 6 6\u000asplit_gain=4.9719e+09 7.76518e+08 4.84791e+08 1.44604e+08 1.37885e+08 4.53487e+07 3.83434e+07 2.24076e+07 2.01472e+07 1.90614e+07 1.81247e+07 5.39334e+06 5.3698e+06 4.41996e+06 4.23767e+06 4.05125e+06 3.60068e+06 2.56364e+06 2.4844e+06 2.43396e+06 2.3925e+06 2.34343e+06 2.17013e+06 792490 745578 717309 620986 619669 571846 564493\u000athreshold=204.50000000000003 473.50000000000006 69.500000000000014 326.50000000000006 686.50000000000011 133.50000000000003 22.500000000000004 861.50000000000011 264.50000000000006 395.50000000000006 566.50000000000011 101.50000000000001 169.50000000000003 43.500000000000007 7.5000000000000009 969.50000000000011 764.50000000000011 234.50000000000003 624.50000000000011 362.50000000000006 297.50000000000006 434.50000000000006 515.50000000000011 86.500000000000014 151.50000000000003 1.5000000000000002 117.50000000000001 187.50000000000003 14.500000000000002 55.500000000000007\u000adecision_type=2 2 2 2 2 2 2 2 2 2 2 2 2 2 2 2 2 2 2 2 2 2 2 2 2 2 2 2 2 2\u000aleft_child=2 3 6 8 10 11 14 16 17 19 22 23 24 -8 -1 -9 -6 -2 -12 -5 -10 -11 -3 -4 -7 -17 -13 -14 -16 -15\u000aright_child=1 4 5 9 7 12 13 15 20 21 18 26 27 29 28 25 -18 -19 -20 -21 -22 -23 -24 -25 -26 -27 -28 -29 -30 -31\u000aleaf_value=-3.4881711640616659 6.8186976474789489 19.851166559662559 0.098932144113882639 12.75431601326558 30.783170807667268 3.167266769350447 -2.0844532734512602 39.511005455129109 9.7415341756218368 16.104396415649383 24.588825772440146 1.599528585334423 4.8807596592863733 -1.252587850960033 -3.0911082748489385 51.738429731889212 34.843149715152514 8.235005642666815 27.493720324612408 14.394402283328262 11.227104626364991 17.947344421190465 22.033066555914754 0.87019587788273212 4.0222053201815573 45.429162058389807 2.3684135760753922 5.7151341210698936 -2.7288696085539423 -0.63113904019942135\u000aleaf_count=187280 6791 2509 7401 5241 1248 5196 20606 613 6080 3873 1714 5672 4840 7451 28799 55 971 6034 1290 3980 4890 3110 2088 6056 5008 249 4890 4119 17525 7171\u000ainternal_value=0 290.326 -47.2094 226.23 529.108 51.1417 -63.0074 705.535 176.613 299.091 456.318 22.1959 87.4225 -32.2534 -67.6452 837.028 651.195 149.701 516.725 269.244 208.075 338.504 416.844 8.92042 71.7372 931.413 39.1101 105.287 -59.0814 -18.9563\u000ainternal_count=362750 50736 312014 39999 10737 43182 268832 3136 23795 16204 7601 24019 19163 35228 233604 917 2219 12825 3004 9221 10970 6983 4597 13457 10204 304 10562 8959 46324 14622\u000ashrinkage=0.05\u000a\u000a\u000aTree=2\u000anum_leaves=31\u000anum_cat=0\u000asplit_feature=6 6 6 6 6 6 6 6 6 6 6 6 6 6 6 6 6 6 6 6 6 6 6 6 6 6 2 6 6 6\u000asplit_gain=4.48718e+09 7.16223e+08 4.17395e+08 1.3571e+08 1.2647e+08 3.98604e+07 3.22703e+07 2.3593e+07 1.87106e+07 1.60066e+07 1.55076e+07 5.40126e+06 4.96103e+06 4.52202e+06 3.87514e+06 3.50464e+06 2.60948e+06 2.52152e+06 2.18549e+06 2.18443e+06 2.11386e+06 1.98057e+06 1.67703e+06 943532 685326 656375 647371 589464 548932 518942\u000athreshold=200.50000000000003 463.50000000000006 67.500000000000014 669.50000000000011 315.50000000000006 129.50000000000003 21.500000000000004 824.50000000000011 382.50000000000006 555.50000000000011 253.50000000000003 969.50000000000011 163.50000000000003 95.500000000000014 41.500000000000007 6.5000000000000009 418.50000000000006 740.50000000000011 347.50000000000006 282.50000000000006 502.50000000000006 610.50000000000011 225.50000000000003 901.50000000000011 111.50000000000001 181.50000000000003 1.5000000000000002 145.50000000000003 13.500000000000002 53.500000000000007\u000adecision_type=2 2 2 2 2 2 2 2 2 2 2 2 2 2 2 2 2 2 2 2 2 2 2 2 2 2 2 2 2 2\u000aleft_child=2 4 6 9 10 13 15 17 18 20 22 23 27 -4 -8 -1 -10 -5 -6 -12 -3 -11 -2 -9 -15 -14 -13 -7 -17 -16\u000aright_child=1 3 5 7 8 12 14 11 16 21 19 26 25 24 29 28 -18 -19 -20 -21 -22 -23 -24 -25 -26 -27 -28 -29 -30 -31\u000aleaf_value=-3.3217352531082533 6.1835967180606461 18.325856537272454 0.24071011343947346 28.335678832612121 11.515351985015778 2.7805142621863652 -2.0514822994900088 35.45415174587847 14.620347490664617 22.830560430767893 8.6721741912819343 49.151507346413354 4.3714998288579219 1.2484902411803136 -1.2801518685390567 -2.9792594225312072 16.453818491279623 31.720446233374833 13.029269477003954 10.070573898227751 20.389077356678058 25.407347289337508 7.3796124719957561 38.830815583756831 2.0145311235686862 5.1981048349805254 43.157705038905625 3.5548221033324232 -2.6397799796142229 -0.69429564677290534\u000aleaf_count=181217 5802 2548 12101 1234 4987 4755 20681 626 3853 1740 5436 55 4885 6027 7870 31689 3910 993 4567 5743 2421 1305 5923 309 5663 4724 249 5088 19076 7273\u000ainternal_value=0 272.802 -45.3438 493.11 209.921 45.8177 -60.0638 658.438 274.411 421.607 161.163 769.05 79.3943 18.3647 -32.1299 -64.3775 310.876 596.898 244.781 187.812 386.622 478.698 135.756 731.402 32.3917 95.5575 884.842 63.6153 -57.0339 -19.9754\u000ainternal_count=362750 51701 311049 11480 40221 43243 267806 3466 17317 8014 22904 1239 19452 23791 35824 231982 7763 2227 9554 11179 4969 3045 11725 935 11690 9609 304 9843 50765 15143\u000ashrinkage=0.05\u000a\u000a\u000aTree=3\u000anum_leaves=31\u000anum_cat=0\u000asplit_feature=6 6 6 6 6 6 6 6 6 6 6 6 6 6 6 6 6 6 6 6 6 6 6 6 6 6 2 6 6 6\u000asplit_gain=4.04999e+09 6.26197e+08 4.04007e+08 1.20564e+08 1.06998e+08 3.65183e+07 3.33033e+07 1.77718e+07 1.59408e+07 1.57416e+07 1.50714e+07 4.3572e+06 4.31429e+06 4.30065e+06 3.28016e+06 3.08962e+06 2.41091e+06 2.20853e+06 2.18574e+06 1.99662e+06 1.98318e+06 1.93147e+06 1.80694e+06 651757 602544 585869 584253 508090 496784 466554\u000athreshold=206.50000000000003 479.50000000000006 71.500000000000014 332.50000000000006 702.50000000000011 135.50000000000003 25.500000000000004 269.50000000000006 576.50000000000011 861.50000000000011 402.50000000000006 103.50000000000001 171.50000000000003 9.5000000000000018 969.50000000000011 47.500000000000007 238.50000000000003 788.50000000000011 637.50000000000011 368.50000000000006 300.50000000000006 531.50000000000011 443.50000000000006 88.500000000000014 153.50000000000003 3.5000000000000004 1.5000000000000002 119.50000000000001 189.50000000000003 35.500000000000007\u000adecision_type=2 2 2 2 2 2 2 2 2 2 2 2 2 2 2 2 2 2 2 2 2 2 2 2 2 2 2 2 2 2\u000aleft_child=2 3 6 7 8 11 13 16 21 17 19 23 24 25 -11 29 -2 -6 -10 -5 -9 -3 -12 -4 -7 -1 -16 -13 -14 -8\u000aright_child=1 4 5 10 9 12 15 20 18 14 22 27 28 -15 26 -17 -18 -19 -20 -21 -22 -23 -24 -25 -26 -27 -28 -29 -30 -31\u000aleaf_value=-3.182326073466883 6.2782321865885802 18.340825380752175 0.17170557688452143 11.77021711592457 28.595341809943591 2.9478420727601442 -1.9542827432500869 8.9633759677463107 22.673104660769543 35.677641722039731 14.862884352807948 1.5261420260940257 4.486985090756451 -2.5687198526641275 46.693932717063213 -0.72228573830655751 7.6288103123017512 32.140814897214625 25.422191333398516 13.27114719882141 10.310375793939432 20.470837729317804 16.535347270826758 0.87524235782231696 3.7191027684653983 -2.9782126077847435 40.99981929671813 2.2253354481009588 5.2369575325953583 -1.4596822917374597\u000aleaf_count=151521 7207 2824 7307 5134 1261 5186 10234 5625 1660 613 3917 5548 4773 40398 55 12873 6102 674 1281 3898 5314 1708 2748 5991 4949 45777 249 4887 4109 8927\u000ainternal_value=0 263.439 -42.3806 206.696 482.966 47.9387 -56.6954 162.493 420.077 647.75 274.978 21.776 80.5894 -60.7746 755.671 -26.4274 137.949 596.606 477.41 248.36 192.355 382.871 311.049 9.77324 66.4891 -62.6994 840.6 37.0719 96.6788 -34.477\u000ainternal_count=362750 50270 312480 39945 10325 42750 269730 24248 7473 2852 15697 23733 19017 237696 917 32034 13309 1935 2941 9032 10939 4532 6665 13298 10135 197298 304 10435 8882 19161\u000ashrinkage=0.05\u000a\u000a\u000aTree=4\u000anum_leaves=31\u000anum_cat=0\u000asplit_feature=6 6 6 6 6 6 6 6 6 6 6 6 6 6 6 6 6 6 6 6 6 6 6 6 6 6 2 6 6 6\u000asplit_gain=3.65512e+09 5.65143e+08 3.64617e+08 1.08857e+08 9.65659e+07 3.29754e+07 3.0059e+07 1.5053e+07 1.45183e+07 1.44437e+07 1.42068e+07 4.27962e+06 3.60214e+06 3.56482e+06 3.04739e+06 2.96035e+06 2.30332e+06 2.05403e+06 1.99319e+06 1.89821e+06 1.8062e+06 1.6344e+06 1.42877e+06 688894 545542 528747 527288 454213 449660 386123\u000athreshold=206.50000000000003 479.50000000000006 71.500000000000014 329.50000000000006 702.50000000000011 137.50000000000003 24.500000000000004 266.50000000000006 402.50000000000006 586.50000000000011 861.50000000000011 105.50000000000001 9.5000000000000018 173.50000000000003 46.500000000000007 969.50000000000011 531.50000000000011 365.50000000000006 788.50000000000011 236.50000000000003 297.50000000000006 438.50000000000006 653.50000000000011 88.500000000000014 155.50000000000003 3.5000000000000004 1.5000000000000002 121.50000000000001 34.500000000000007 16.500000000000004\u000adecision_type=2 2 2 2 2 2 2 2 2 2 2 2 2 2 2 2 2 2 2 2 2 2 2 2 2 2 2 2 2 2\u000aleft_child=2 3 6 7 9 11 12 19 17 16 18 23 25 24 28 -12 -3 -5 -6 -2 -9 -10 -11 -4 -7 -1 -17 -13 -8 -14\u000aright_child=1 4 5 8 10 13 14 20 21 22 15 27 29 -15 -16 26 -18 -19 -20 -21 -22 -23 -24 -25 -26 -27 -28 -29 -30 -31\u000aleaf_value=-3.0232097864980236 5.9261916463105182 17.423784365127172 0.16312029536431638 11.058830256221791 27.165574842024945 2.8835460899884358 -1.9017454878444717 8.3988952433716371 14.030930941029343 22.08032077763891 33.893759593372437 1.5276154334546452 -2.5743623836369274 4.6375524589345298 -0.70854061892926978 44.359236616654833 19.624354153552332 12.536778816285173 30.533774491941188 7.148110553907312 9.6789719500959155 15.598941028940008 24.519034951420153 0.86494283101524916 3.6184193692688837 -2.8293020631782788 38.949828451991564 2.1927653899016204 -1.4246075808396172 -2.249582986847956\u000aleaf_count=151521 6784 2824 7307 5179 1261 5198 10725 5675 3503 1651 613 5439 24424 8329 13497 55 2054 4305 674 5980 5357 3162 944 6705 4912 45777 249 4860 9151 14635\u000ainternal_value=0 250.267 -40.2615 196.361 458.817 45.5417 -53.8606 153.356 259.73 399.073 615.363 21.354 -57.8274 77.4321 -25.7669 717.887 367.008 234.594 566.776 129.973 180.41 295.496 459.349 9.97911 64.8118 -59.5644 798.57 36.8299 -33.6414 -49.0534\u000ainternal_count=362750 50270 312480 39945 10325 42750 269730 23796 16149 7473 2852 24311 236357 18439 33373 917 4878 9484 1935 12764 11032 6665 2595 14012 10110 197298 304 10299 19876 39059\u000ashrinkage=0.05\u000a\u000a\u000aTree=5\u000anum_leaves=31\u000anum_cat=0\u000asplit_feature=6 6 6 6 6 6 6 6 6 6 6 6 6 6 6 6 6 6 6 6 6 6 6 6 6 6 2 6 6 6\u000asplit_gain=3.29909e+09 5.3269e+08 2.99756e+08 1.04252e+08 9.14459e+07 3.02598e+07 2.15008e+07 1.74316e+07 1.34476e+07 1.29543e+07 1.11818e+07 3.9373e+06 3.67127e+06 3.50794e+06 2.58322e+06 2.36401e+06 1.91302e+06 1.87277e+06 1.80861e+06 1.65003e+06 1.6009e+06 1.47836e+06 1.21615e+06 759969 502250 486764 475877 441048 427928 388837\u000athreshold=198.50000000000003 458.50000000000006 64.500000000000014 669.50000000000011 312.50000000000006 127.50000000000001 20.500000000000004 824.50000000000011 379.50000000000006 547.50000000000011 250.50000000000003 969.50000000000011 161.50000000000003 93.500000000000014 38.500000000000007 6.5000000000000009 740.50000000000011 598.50000000000011 414.50000000000006 344.50000000000006 279.50000000000006 496.50000000000006 221.50000000000003 901.50000000000011 109.50000000000001 179.50000000000003 1.5000000000000002 143.50000000000003 78.500000000000014 51.500000000000007\u000adecision_type=2 2 2 2 2 2 2 2 2 2 2 2 2 2 2 2 2 2 2 2 2 2 2 2 2 2 2 2 2 2\u000aleft_child=2 4 6 9 10 13 15 16 19 21 22 23 27 28 -8 -1 -5 -11 -10 -6 -12 -3 -2 -9 -15 -14 -13 -7 -4 -16\u000aright_child=1 3 5 7 8 12 14 11 18 17 20 26 25 24 29 -17 -18 -19 -20 -21 -22 -23 -24 -25 -26 -27 -28 -29 -30 -31\u000aleaf_value=-2.848632877081692 5.1733901675132987 15.494599456493106 -0.16717661483857219 24.275634918954811 9.7548353991549899 2.309283349527234 -1.8292759646092123 30.380252123945439 12.401001441750015 19.185817664480787 7.3227780168611902 42.14127397017046 3.667217056992842 0.99374387304136569 -1.1947094488685661 -2.4574749824126059 27.223840332031251 21.543194742365984 13.931191791747546 11.059372459769609 8.5162492620944974 17.208032610996614 6.1988803090044042 33.410704499772457 1.6437686264182867 4.3772329015483997 37.002336996913435 2.975349477567784 0.41345227192051359 -0.69717207102515977\u000aleaf_count=181217 5399 2595 6578 1234 5068 4867 20085 626 3823 1737 5486 55 4885 6157 8978 49090 993 1636 3902 4646 5760 2445 6224 309 5744 4772 249 5079 6131 6980\u000ainternal_value=0 232.641 -39.093 418.748 177.795 37.1606 -51.7508 564.701 232.339 358.618 136.201 659.779 66.4731 13.8118 -29.0394 -55.3051 511.804 406.584 263.478 207.575 158.681 326.516 114.451 627.635 26.1495 80.3614 758.642 52.9883 2.25854 -19.5418\u000ainternal_count=362750 52187 310563 11879 40308 44213 266350 3466 17439 8413 22869 1239 19603 24610 36043 230307 2227 3373 7725 9714 11246 5040 11623 935 11901 9657 304 9946 12709 15958\u000ashrinkage=0.05\u000a\u000a\u000aTree=6\u000anum_leaves=31\u000anum_cat=0\u000asplit_feature=6 6 6 6 6 6 6 6 6 6 6 6 6 6 6 6 6 6 6 6 6 6 6 6 6 6 6 2 6 6\u000asplit_gain=2.97754e+09 4.55462e+08 3.04119e+08 8.98336e+07 7.5366e+07 2.65564e+07 2.61013e+07 1.31987e+07 1.16027e+07 1.12484e+07 1.07398e+07 3.42961e+06 3.42406e+06 2.91225e+06 2.87496e+06 2.32159e+06 1.84649e+06 1.58045e+06 1.50501e+06 1.44821e+06 1.3461e+06 1.2007e+06 1.13089e+06 525238 457606 441764 440571 429479 347740 344803\u000athreshold=208.50000000000003 484.50000000000006 73.500000000000014 335.50000000000006 702.50000000000011 139.50000000000003 26.500000000000004 272.50000000000006 901.50000000000011 406.50000000000006 586.50000000000011 105.50000000000001 10.500000000000002 788.50000000000011 175.50000000000003 49.500000000000007 242.50000000000003 538.50000000000011 372.50000000000006 303.50000000000006 448.50000000000006 637.50000000000011 969.50000000000011 3.5000000000000004 90.500000000000014 123.50000000000001 157.50000000000003 1.5000000000000002 824.50000000000011 36.500000000000007\u000adecision_type=2 2 2 2 2 2 2 2 2 2 2 2 2 2 2 2 2 2 2 2 2 2 2 2 2 2 2 2 2 2\u000aleft_child=2 3 6 7 10 11 12 16 13 18 17 24 23 -6 26 29 -2 -3 -5 -9 -11 -12 -10 -1 -4 -13 -7 -24 -15 -8\u000aright_child=1 4 5 9 8 14 15 19 22 20 21 25 -14 28 -16 -17 -18 -19 -20 -21 -22 -23 27 -25 -26 -27 -28 -29 -30 -31\u000aleaf_value=-2.7296175242299574 5.4908879552045891 15.959862450632627 0.22470818507764578 10.215279230491097 24.518581427287529 2.6749109851430366 -1.6276939757703959 7.7935398226095023 31.740169221452142 12.898964996416666 19.663351063024326 1.4119673218090703 -2.1613858706980906 26.896938532049006 4.2541742631917288 -0.54446217926251128 6.6759741021284684 17.879812708307991 11.521882472894131 8.9499887425400697 14.352656286002617 21.814564127032412 40.034209428267047 -2.5429850187861103 0.81800018375289685 2.0537245449109918 3.3370682941670071 35.152221030116564 28.861239672773564 -1.2035465306137008\u000aleaf_count=151521 7557 2807 7161 5135 1261 5167 9792 5586 309 3874 1314 6084 37245 352 8298 12505 5817 1734 3861 5253 2704 1281 55 50184 5951 4795 4889 249 626 9383\u000ainternal_value=0 227.182 -36.1307 179.254 418.102 42.6744 -48.4612 141.145 555.507 238.502 363.187 20.7703 -52.037 522.133 71.3058 -21.4897 120.127 333.86 215.521 167.08 269.931 414.506 677.406 -53.6637 9.87958 33.8965 59.9367 720.71 563.085 -28.4029\u000ainternal_count=362750 49775 312975 39787 9988 42345 270630 24213 2852 15574 7136 23991 238950 2239 18354 31680 13374 4541 8996 10839 6578 2595 613 201705 13112 10879 10056 304 978 19175\u000ashrinkage=0.05\u000a\u000a\u000aTree=7\u000anum_leaves=31\u000anum_cat=0\u000asplit_feature=6 6 6 6 6 6 6 6 6 6 6 6 6 6 6 6 6 6 6 6 6 6 6 6 6 2 6 6 6 6\u000asplit_gain=2.68763e+09 4.33945e+08 2.44222e+08 8.14189e+07 7.79098e+07 2.45599e+07 1.75876e+07 1.41638e+07 1.05874e+07 1.04787e+07 9.61618e+06 3.22593e+06 3.20696e+06 2.60097e+06 2.25215e+06 1.75775e+06 1.59423e+06 1.43436e+06 1.33364e+06 1.33296e+06 1.32535e+06 1.31477e+06 1.21878e+06 619000 462992 387605 352476 347798 343675 325450\u000athreshold=198.50000000000003 463.50000000000006 64.500000000000014 669.50000000000011 318.50000000000006 125.50000000000001 19.500000000000004 824.50000000000011 256.50000000000006 385.50000000000006 555.50000000000011 159.50000000000003 969.50000000000011 93.500000000000014 39.500000000000007 5.5000000000000009 740.50000000000011 422.50000000000006 223.50000000000003 508.50000000000006 285.50000000000006 350.50000000000006 610.50000000000011 901.50000000000011 179.50000000000003 1.5000000000000002 141.50000000000003 80.500000000000014 109.50000000000001 12.500000000000002\u000adecision_type=2 2 2 2 2 2 2 2 2 2 2 2 2 2 2 2 2 2 2 2 2 2 2 2 2 2 2 2 2 2\u000aleft_child=2 4 6 10 8 13 15 16 18 21 19 26 23 27 -8 -1 -5 -11 -2 -3 -10 -6 -12 -9 -13 -14 -7 -4 -15 -17\u000aright_child=1 3 5 7 9 11 14 12 20 17 22 24 25 28 -16 29 -18 -19 -20 -21 -22 -23 -24 -25 -26 -27 -28 -29 -30 -31\u000aleaf_value=-2.578370496686675 4.7048630294147724 14.266059029242379 -0.11386685505241212 21.903195833425663 9.013452798624229 2.0162208311577938 -1.6526916453007072 27.418176318281379 6.8112913485368827 11.428584246565514 17.661540521205158 3.2716607708021259 38.032500166459521 0.89604680171469031 -0.86544804843115031 -2.3426953428471418 24.594565045221337 12.82104486370303 5.7305084879832311 15.926620756218234 7.9027468466043604 10.197969472939359 19.682916950795843 30.153160554459955 3.9456624669780873 33.394609946132185 2.6116330744565026 0.41715339436948745 1.4492985675676453 -2.0866335790857051\u000aleaf_count=174006 5850 2894 7446 1234 4926 4847 22615 626 5431 3887 1740 5467 55 6157 15185 35453 993 3528 6917 2075 5701 4467 1305 309 4772 249 5102 5263 5159 19091\u000ainternal_value=0 209.978 -35.2848 381.69 161.553 33.5438 -46.71 509.747 124.865 213.72 326.306 59.255 595.45 11.9388 -26.7288 -50.0147 462.065 241.822 105.211 299.19 147.405 191.535 370.557 566.441 71.7157 684.674 46.4311 2.12074 22.9655 -45.0614\u000ainternal_count=362750 52187 310563 11480 40707 44213 266350 3466 23899 16808 8014 20188 1239 24025 37800 228550 2227 7415 12767 4969 11132 9393 3045 935 10239 304 9949 12709 11316 54544\u000ashrinkage=0.05\u000a\u000a\u000aTree=8\u000anum_leaves=31\u000anum_cat=0\u000asplit_feature=6 6 6 6 6 6 6 6 6 6 6 6 6 6 6 6 6 6 6 6 6 6 6 6 6 2 6 6 6 6\u000asplit_gain=2.42564e+09 3.87488e+08 2.25774e+08 7.13828e+07 7.05827e+07 2.20094e+07 1.69254e+07 1.10015e+07 1.03206e+07 9.71231e+06 9.07191e+06 2.67297e+06 2.56948e+06 1.9309e+06 1.91959e+06 1.90592e+06 1.85874e+06 1.3532e+06 1.34866e+06 1.33644e+06 1.23015e+06 1.2057e+06 1.09748e+06 387595 376116 349813 323196 319599 312071 279110\u000athreshold=200.50000000000003 468.50000000000006 66.500000000000014 318.50000000000006 686.50000000000011 129.50000000000003 21.500000000000004 861.50000000000011 388.50000000000006 566.50000000000011 256.50000000000006 163.50000000000003 97.500000000000014 969.50000000000011 40.500000000000007 7.5000000000000009 764.50000000000011 353.50000000000006 426.50000000000006 508.50000000000006 624.50000000000011 288.50000000000006 227.50000000000003 82.500000000000014 185.50000000000003 1.5000000000000002 147.50000000000003 54.500000000000007 113.50000000000001 723.50000000000011\u000adecision_type=2 2 2 2 2 2 2 2 2 2 2 2 2 2 2 2 2 2 2 2 2 2 2 2 2 2 2 2 2 2\u000aleft_child=2 3 6 10 9 12 15 16 17 19 22 26 23 -9 -8 -1 29 -5 -10 -3 -11 -12 -2 -4 -13 -15 -7 -16 -14 -6\u000aright_child=1 4 5 8 7 11 14 13 18 20 21 24 28 25 27 -17 -18 -19 -20 -21 -22 -23 -24 -25 -26 -27 -28 -29 -30 -31\u000aleaf_value=-2.4371722782600238 4.5676084320175558 13.639755347525719 -0.049235764875321358 8.6068668574777956 20.718318553397328 2.0725858709164542 -1.5160208236111377 27.648216349615748 10.97559158809414 17.169882747868257 6.5202311253893557 3.2630692200537741 0.9852862307061061 36.130873579545458 -0.9595220595873718 -2.0738098517919643 24.393949751849036 9.7884874762391032 12.326425109750927 15.279617157356718 19.213967352578806 7.5640843930193373 5.5131221646999515 0.49041440913757273 3.9067121578378443 31.724880331874374 2.6474553307713804 -0.49474777293035732 1.5229244909444226 22.213954394010571\u000aleaf_count=187280 6263 2525 7313 5322 615 5316 19932 613 3876 1714 5997 5933 5924 55 9195 44702 971 4448 3531 2446 1290 5135 6018 6105 3676 249 4527 6188 4958 633\u000ainternal_value=0 200.574 -33.3384 155.279 366.041 33.2534 -44.2383 493.143 204.239 316.061 119.36 58.3218 13.1863 585.279 -23.8435 -47.3431 455.067 182.896 232.391 288.933 360.953 140.035 100.619 3.92595 70.186 650.44 46.7396 -15.4512 24.6048 429.538\u000ainternal_count=362750 51701 311049 40590 11111 43752 267297 3136 17177 7975 23413 19452 24300 917 35315 231982 2219 9770 7407 4971 3004 11132 12281 13418 9609 304 9843 15383 10882 1248\u000ashrinkage=0.05\u000a\u000a\u000aTree=9\u000anum_leaves=31\u000anum_cat=0\u000asplit_feature=6 6 6 6 6 6 6 6 6 6 6 6 6 6 6 6 6 6 6 6 6 6 6 6 6 6 2 6 6 6\u000asplit_gain=2.18933e+09 3.30067e+08 2.30637e+08 6.65958e+07 5.27917e+07 2.0551e+07 1.93412e+07 9.57786e+06 8.86547e+06 8.492e+06 7.24089e+06 2.68219e+06 2.5221e+06 2.3407e+06 1.5696e+06 1.43668e+06 1.29806e+06 1.26906e+06 1.10855e+06 1.08892e+06 1.02749e+06 962306 808948 483278 395163 318583 315707 303835 263276 244139\u000athreshold=211.50000000000003 490.50000000000006 73.500000000000014 338.50000000000006 723.50000000000011 139.50000000000003 27.500000000000004 274.50000000000006 598.50000000000011 410.50000000000006 901.50000000000011 11.500000000000002 107.50000000000001 175.50000000000003 50.500000000000007 788.50000000000011 245.50000000000003 538.50000000000011 372.50000000000006 306.50000000000006 448.50000000000006 653.50000000000011 969.50000000000011 4.5000000000000009 90.500000000000014 157.50000000000003 1.5000000000000002 191.50000000000003 123.50000000000001 824.50000000000011\u000adecision_type=2 2 2 2 2 2 2 2 2 2 2 2 2 2 2 2 2 2 2 2 2 2 2 2 2 2 2 2 2 2\u000aleft_child=2 3 6 7 8 12 11 16 17 18 15 23 24 25 -8 -6 -2 -3 -5 -9 -11 -10 -12 -1 -4 -7 -24 -15 -14 -17\u000aright_child=1 4 5 9 10 13 14 19 21 20 22 -13 28 27 -16 29 -18 -19 -20 -21 -22 -23 26 -25 -26 -27 -28 -29 -30 -31\u000aleaf_value=-2.3348280690580836 4.8036519036762062 13.804513185546476 0.19482960800038523 8.8152318918311448 21.411259278328188 2.294423960255128 -1.1784515006957923 6.7613676743024245 17.29791966740607 11.126041313324412 27.263090974381829 -1.819801827316907 1.2492399757456891 3.3686896402036561 -0.44309123405960193 23.10266668146307 5.8089904843665963 15.485997144323868 9.9301937348598308 7.7631757608462157 12.379808300650163 19.228971944173178 34.324330610795457 -2.1428812363853482 0.7288571831721663 2.8574972794084714 30.138634604335312 3.9522543608992415 1.7599940992520424 24.748553132858522\u000aleaf_count=164762 7513 2438 7161 4695 930 5167 18599 5675 1306 3490 309 34429 5325 4188 11899 352 5607 2079 4245 5196 3073 1275 55 40941 6710 4889 249 4772 4795 626\u000ainternal_value=0 196.321 -30.7423 155.863 362.434 37.2828 -41.5524 122.854 318.283 206.946 486.742 -44.5652 17.821 61.8362 -17.8309 456.365 104.666 291.569 186.893 144.804 234.262 365.037 581.294 -45.9325 9.06323 51.3635 617.918 73.5898 29.8249 483.123\u000ainternal_count=362750 49113 313637 39494 9619 43007 270630 23991 7098 15503 2521 240132 23991 19016 30498 1908 13120 4517 8940 10871 6563 2581 613 205703 13871 10056 304 8960 10120 978\u000ashrinkage=0.05\u000a\u000a\u000aTree=10\u000anum_leaves=31\u000anum_cat=0\u000asplit_feature=6 6 6 6 6 6 6 6 6 6 6 6 6 6 6 6 6 6 6 6 6 6 6 6 6 6 6 6 2 6\u000asplit_gain=1.97587e+09 3.02498e+08 2.01769e+08 5.96598e+07 5.00932e+07 2.0455e+07 1.43473e+07 8.76319e+06 7.74564e+06 7.46251e+06 7.15201e+06 2.49096e+06 2.3814e+06 1.98846e+06 1.56382e+06 1.29702e+06 1.25192e+06 1.09543e+06 1.06231e+06 991210 962072 906886 792246 376992 362575 344101 302443 300265 284925 244655\u000athreshold=208.50000000000003 484.50000000000006 67.500000000000014 335.50000000000006 702.50000000000011 133.50000000000003 19.500000000000004 272.50000000000006 861.50000000000011 406.50000000000006 586.50000000000011 169.50000000000003 99.500000000000014 37.500000000000007 969.50000000000011 5.5000000000000009 240.50000000000003 788.50000000000011 523.50000000000011 368.50000000000006 306.50000000000006 443.50000000000006 637.50000000000011 54.500000000000007 189.50000000000003 82.500000000000014 115.50000000000001 149.50000000000003 1.5000000000000002 12.500000000000002\u000adecision_type=2 2 2 2 2 2 2 2 2 2 2 2 2 2 2 2 2 2 2 2 2 2 2 2 2 2 2 2 2 2\u000aleft_child=2 3 6 7 10 12 15 16 17 19 18 27 25 -8 -10 -1 -2 -6 -3 -5 -9 -11 -12 -15 -13 -4 -14 -7 -16 -17\u000aright_child=1 4 5 9 8 11 13 20 14 21 22 24 26 23 28 29 -18 -19 -20 -21 -22 -23 -24 -25 -26 -27 -28 -29 -30 -31\u000aleaf_value=-2.2113617388797615 4.4377207374385206 12.783707451988354 -0.030348888856042911 8.2738526071296281 19.97042511131535 1.9595322325512357 -1.4406486342000249 6.3875823009490347 24.965001286417976 10.442664805668116 16.025640354708088 3.0894982461017988 0.94923746306897849 -0.90076504172668137 32.608113763982601 -2.0096350778508643 5.4072597353025786 22.467404464585847 14.316187018146167 9.3243396877304701 7.3368497073700496 11.619095853190368 17.77305737271335 -0.4288227724961351 3.6956269912984867 0.47099211777833444 1.465499346473939 2.504500682177857 28.631704062343125 -1.787621235908667\u000aleaf_count=174006 7119 2129 6804 4674 1261 4613 21065 6083 613 3493 1314 5316 5812 11494 55 35453 6255 674 2412 4322 4756 3085 1281 6697 4604 6887 5542 5591 249 19091\u000ainternal_value=0 185.065 -29.4325 146.006 340.657 32.3923 -39.86 114.95 452.679 194.289 295.886 56.1324 13.3168 -22.1991 528.381 -42.8935 97.8235 416.803 271.954 175.571 136.082 219.888 337.765 -14.5404 67.4162 4.43683 24.0246 45.1627 587.022 -38.6386\u000ainternal_count=362750 49775 312975 39787 9988 45169 267806 24213 2852 15574 7136 20124 25045 39256 917 228550 13374 1935 4541 8996 10839 6578 2595 18191 9920 13691 11354 10204 304 54544\u000ashrinkage=0.05\u000a\u000a\u000aTree=11\u000anum_leaves=31\u000anum_cat=0\u000asplit_feature=6 6 6 6 6 6 6 6 6 6 6 6 6 6 6 6 6 6 6 6 6 6 6 6 6 6 6 2 6 6\u000asplit_gain=1.78336e+09 2.68887e+08 1.87889e+08 5.42369e+07 4.30888e+07 1.67707e+07 1.5885e+07 7.80871e+06 7.20804e+06 6.91601e+06 5.94411e+06 2.31127e+06 2.02963e+06 1.7472e+06 1.30002e+06 1.16863e+06 1.13895e+06 1.04813e+06 915392 838097 786958 782345 640238 366978 264950 260108 257622 257145 256224 203576\u000athreshold=211.50000000000003 490.50000000000006 75.500000000000014 338.50000000000006 723.50000000000011 28.500000000000004 141.50000000000003 276.50000000000006 598.50000000000011 410.50000000000006 901.50000000000011 10.500000000000002 107.50000000000001 177.50000000000003 52.500000000000007 245.50000000000003 788.50000000000011 547.50000000000011 376.50000000000006 453.50000000000006 309.50000000000006 653.50000000000011 969.50000000000011 2.5000000000000004 17.500000000000004 91.500000000000014 159.50000000000003 1.5000000000000002 123.50000000000001 824.50000000000011\u000adecision_type=2 2 2 2 2 2 2 2 2 2 2 2 2 2 2 2 2 2 2 2 2 2 2 2 2 2 2 2 2 2\u000aleft_child=2 3 5 7 8 11 12 15 17 18 16 23 25 26 -7 -2 -6 -3 -5 -11 -9 -10 -12 -1 -13 -4 -8 -24 -14 -18\u000aright_child=1 4 6 9 10 14 13 20 21 19 22 24 28 -15 -16 -17 29 -19 -20 -21 -22 -23 27 -25 -26 -27 -28 -29 -30 -31\u000aleaf_value=-2.1268892702614921 4.3347695796828951 12.554985650700631 0.22764397149069687 7.9987497385734017 19.34217511084772 -1.0172010089062804 2.127275366280323 6.1782815166519018 15.609196486188296 10.104475285321367 24.651686555436513 -1.7717411063739084 1.1271148645463684 3.3543340124180077 -0.34257511655761419 5.2700918209687604 20.82416326349432 14.120581744275837 9.022240122257644 11.255281497535291 7.0499989552423763 17.350347547344136 30.977708906693891 -1.9858305003751617 -1.5104666150400541 0.67552768760595849 2.6341040274289274 27.200118368983752 1.6159941096231618 22.32711069515338\u000aleaf_count=130364 7513 2780 6723 5141 930 18710 5102 5769 1306 3902 309 22485 5325 8383 11549 6012 352 1737 3799 2661 4697 1275 55 71341 17069 6260 4930 249 5396 626\u000ainternal_value=0 177.187 -27.746 140.671 327.117 -37.386 34.3977 110.881 287.229 186.77 439.421 -40.1693 17.2807 56.431 -15.1943 95.0106 411.898 263.141 168.674 211.422 131.39 329.386 525.089 -41.54 -33.1798 8.87199 47.5269 557.671 27.4635 435.723\u000ainternal_count=362750 49113 313637 39494 9619 271518 42119 23991 7098 15503 2521 241259 23704 18415 30259 13525 1908 4517 8940 6563 10466 2581 613 201705 39554 12983 10032 304 10721 978\u000ashrinkage=0.05\u000a\u000a\u000aTree=12\u000anum_leaves=31\u000anum_cat=0\u000asplit_feature=6 6 6 6 6 6 6 6 6 6 6 6 6 6 6 6 6 6 6 6 6 6 6 6 2 6 6 6 6 6\u000asplit_gain=1.60981e+09 2.62971e+08 1.42889e+08 5.10355e+07 4.57727e+07 1.43418e+07 1.02404e+07 8.51248e+06 6.56456e+06 6.33136e+06 5.77385e+06 1.89876e+06 1.75289e+06 1.60843e+06 1.43432e+06 964314 955171 898278 895578 824599 789911 734796 700838 403567 232073 225463 218734 216600 213217 204128\u000athreshold=196.50000000000003 458.50000000000006 63.500000000000007 669.50000000000011 312.50000000000006 125.50000000000001 18.500000000000004 824.50000000000011 379.50000000000006 547.50000000000011 250.50000000000003 969.50000000000011 159.50000000000003 93.500000000000014 35.500000000000007 740.50000000000011 5.5000000000000009 418.50000000000006 610.50000000000011 344.50000000000006 282.50000000000006 502.50000000000006 219.50000000000003 901.50000000000011 1.5000000000000002 177.50000000000003 78.500000000000014 48.500000000000007 143.50000000000003 109.50000000000001\u000adecision_type=2 2 2 2 2 2 2 2 2 2 2 2 2 2 2 2 2 2 2 2 2 2 2 2 2 2 2 2 2 2\u000aleft_child=2 4 6 9 10 13 16 15 19 21 22 23 28 26 -8 -5 -1 -10 -11 -6 -12 -3 -2 -9 -13 -14 -4 -16 -7 -15\u000aright_child=1 3 5 7 8 12 14 11 17 18 20 24 25 29 27 -17 -18 -19 -20 -21 -22 -23 -24 -25 -26 -27 -28 -29 -30 -31\u000aleaf_value=-1.9962180456687624 3.5465986823400573 10.894181173147896 -0.11350014908461242 16.953022151557516 6.8072410213166368 1.5867456845299603 -1.3424105645693472 21.210755540159184 8.7090951408092945 13.554546871960049 5.1534463446770378 29.428822798295457 2.5023987859838153 0.69477908227550955 -0.89924049131695305 19.046204452284154 -1.7528510357091134 9.7919295588846182 15.227367910333976 7.7294568620567636 5.9936744802439179 12.119344716224726 4.3118240412234057 23.419101411393545 25.840111655116562 2.9831814819889368 0.29488569209906584 -0.5511107400884383 2.0518292523130248 1.1211629870511415\u000aleaf_count=174006 5406 2947 7048 1234 5068 5452 21447 626 4214 2068 6024 55 4930 6157 9566 993 52477 3511 1305 4646 5222 2093 6701 309 249 4825 6131 8384 4497 5159\u000ainternal_value=0 161.635 -27.4558 292.573 123.504 25.1945 -36.2082 394.692 162.268 250.502 94.5573 461.133 45.2788 9.03844 -21.3282 357.727 -38.7966 184.025 284.035 144.966 110.872 228.059 79.4027 438.811 529.788 54.8041 1.5297 -14.7328 35.9393 17.7834\u000ainternal_count=362750 52671 310079 11879 40792 44199 265880 3466 17439 8413 23353 1239 19704 24495 39397 2227 226483 7725 3373 9714 11246 5040 12107 935 304 9755 13179 17950 9949 11316\u000ashrinkage=0.05\u000a\u000a\u000aTree=13\u000anum_leaves=31\u000anum_cat=0\u000asplit_feature=6 6 6 6 6 6 6 6 6 6 6 6 6 6 6 6 6 6 6 6 6 6 6 6 6 6 6 2 6 6\u000asplit_gain=1.45286e+09 2.37331e+08 1.28962e+08 4.60596e+07 4.13108e+07 1.35822e+07 8.64646e+06 7.68252e+06 5.71589e+06 5.62189e+06 5.53777e+06 1.71363e+06 1.59682e+06 1.58635e+06 1.28898e+06 870293 842574 830441 775770 729688 725651 640459 639615 364219 228154 223701 209907 209446 187199 172869\u000athreshold=196.50000000000003 458.50000000000006 61.500000000000007 669.50000000000011 315.50000000000006 125.50000000000001 17.500000000000004 824.50000000000011 555.50000000000011 253.50000000000003 385.50000000000006 969.50000000000011 91.500000000000014 161.50000000000003 32.500000000000007 740.50000000000011 502.50000000000006 350.50000000000006 4.5000000000000009 223.50000000000003 285.50000000000006 422.50000000000006 610.50000000000011 901.50000000000011 143.50000000000003 107.50000000000001 45.500000000000007 1.5000000000000002 78.500000000000014 181.50000000000003\u000adecision_type=2 2 2 2 2 2 2 2 2 2 2 2 2 2 2 2 2 2 2 2 2 2 2 2 2 2 2 2 2 2\u000aleft_child=2 4 6 8 9 12 18 15 16 19 17 23 28 24 -8 -5 -3 -6 -1 -2 -11 -12 -10 -9 -7 -14 -16 -13 -4 -15\u000aright_child=1 3 5 7 10 13 14 11 22 20 21 27 25 29 26 -17 -18 -19 -20 -21 -22 -23 -24 -25 -26 -27 -28 -29 -30 -31\u000aleaf_value=-1.9028357212869449 3.4271264523107776 10.349472158255317 -0.12745044639702158 16.105371244606747 6.580058830703412 1.5074083906713867 -1.3264273253273957 20.150217820432623 13.001655819333834 4.9695086979838159 8.4027028039883671 27.957381730513141 0.60962506640833414 2.4507811786900109 -0.91922453825334971 18.093894271620091 11.608376775502864 7.5002502897427821 -1.6921085563764813 4.1852731865731601 5.7772333624182934 9.3637628608330559 14.466000112482414 22.248146516374014 1.9731568727232291 1.0392128163630923 -0.59186878726284942 24.548107260585311 0.25516671115971096 2.8922265701619119\u000aleaf_count=164762 6334 2947 8026 1234 5435 5452 21079 626 1740 5987 3887 55 6260 5419 10287 993 2421 4467 59428 6361 5192 3129 1305 309 5079 5874 9346 249 5313 3754\u000ainternal_value=0 153.553 -26.083 277.944 117.329 23.3002 -34.5049 374.957 237.976 90.5402 155.133 438.077 8.05038 43.0149 -21.0982 339.841 218.345 139.904 -36.9395 76.1401 106.893 176.626 272.585 416.871 34.6407 16.3517 -15.2678 503.298 0.498963 52.6288\u000ainternal_count=362750 52671 310079 11879 40792 45177 264902 3466 8413 23874 16918 1239 25473 19704 40712 2227 5368 9902 224190 12695 11179 7016 3045 935 10531 12134 19633 304 13339 9173\u000ashrinkage=0.05\u000a\u000a\u000aTree=14\u000anum_leaves=31\u000anum_cat=0\u000asplit_feature=6 6 6 6 6 6 6 6 6 6 6 6 6 6 6 6 6 6 6 6 6 6 6 6 6 6 2 6 6 6\u000asplit_gain=1.31126e+09 2.07439e+08 1.25188e+08 3.92721e+07 3.66396e+07 1.32711e+07 8.34528e+06 5.98315e+06 5.4343e+06 5.27512e+06 4.84714e+06 1.58256e+06 1.57758e+06 1.17123e+06 1.03479e+06 1.0195e+06 806748 784116 766881 711025 652778 649445 477041 256428 237581 196639 189025 184612 182425 168388\u000athreshold=202.50000000000003 473.50000000000006 63.500000000000007 323.50000000000006 686.50000000000011 129.50000000000003 18.500000000000004 861.50000000000011 395.50000000000006 261.50000000000006 576.50000000000011 167.50000000000003 97.500000000000014 34.500000000000007 764.50000000000011 969.50000000000011 523.50000000000011 4.5000000000000009 359.50000000000006 231.50000000000003 434.50000000000006 294.50000000000006 637.50000000000011 80.500000000000014 149.50000000000003 48.500000000000007 1.5000000000000002 187.50000000000003 12.500000000000002 113.50000000000001\u000adecision_type=2 2 2 2 2 2 2 2 2 2 2 2 2 2 2 2 2 2 2 2 2 2 2 2 2 2 2 2 2 2\u000aleft_child=2 3 6 9 10 12 17 14 18 19 16 24 23 -8 -6 -9 -3 -1 -5 -2 -10 -11 -12 -4 -7 -15 -17 -13 -19 -14\u000aright_child=1 4 5 8 7 11 13 15 20 21 22 27 29 25 -16 26 -18 28 -20 -21 -22 -23 -24 -25 -26 -27 -28 -29 -30 -31\u000aleaf_value=-1.8076939289895817 3.4169926281315224 10.251764661723993 -0.081189368100495221 6.4658408124636484 15.785558800819594 1.5449647183350816 -1.2227155213657181 20.36522430619058 8.2650654580775935 4.9249717766148082 12.921673990732216 2.4691280450769528 0.72586461321716778 -0.82200199226191106 17.96205968100551 26.559513549804691 11.546758279126474 -1.6517987933428675 7.3580143175900723 4.1655988037821183 9.2377453647625796 5.6964582730190401 14.305373776664467 0.33550877561285275 2.0127797079936114 -0.49667049562487442 23.320701200799292 2.9291244980033118 -1.4594634997889511 1.1207940955083184\u000aleaf_count=164762 6622 2878 7916 5319 1248 5867 20599 613 3873 6104 1660 5381 5924 10414 971 55 2066 44697 4402 6088 3110 4932 997 6919 5050 8384 249 3668 17024 4958\u000ainternal_value=0 148.331 -24.3695 115.533 271.893 23.9892 -32.6784 362.838 152.684 89.3999 234.371 43.3329 8.97119 -19.2457 334.759 430.785 215.858 -35.015 137.397 75.5114 173.965 105.395 268.818 2.26315 35.2273 -13.5381 478.133 53.1117 -31.975 18.116\u000ainternal_count=362750 51187 311563 40450 10737 45683 265880 3136 16704 23746 7601 19966 25717 39397 2219 917 4944 226483 9721 12710 6983 11036 2657 14835 10917 18798 304 9049 61721 10882\u000ashrinkage=0.05\u000a\u000a\u000aTree=15\u000anum_leaves=31\u000anum_cat=0\u000asplit_feature=6 6 6 6 6 6 6 6 6 6 6 6 6 6 6 6 6 6 6 6 6 6 6 6 6 6 7 2 6 6\u000asplit_gain=1.18361e+09 1.76818e+08 1.27143e+08 3.51397e+07 2.87137e+07 1.12095e+07 1.08885e+07 5.24488e+06 4.76481e+06 4.27004e+06 3.95271e+06 1.56587e+06 1.33609e+06 1.22747e+06 855412 771798 702163 694517 606678 583039 507686 470999 412406 298586 215162 207975 172113 186678 160801 147910\u000athreshold=213.50000000000003 490.50000000000006 75.500000000000014 341.50000000000006 723.50000000000011 28.500000000000004 139.50000000000003 276.50000000000006 598.50000000000011 414.50000000000006 901.50000000000011 11.500000000000002 173.50000000000003 103.50000000000001 55.500000000000007 788.50000000000011 538.50000000000011 242.50000000000003 376.50000000000006 306.50000000000006 653.50000000000011 448.50000000000006 969.50000000000011 2.5000000000000004 193.50000000000003 119.50000000000001 147.50000000000003 5.5000000000000009 42.500000000000007 155.50000000000003\u000adecision_type=2 2 2 2 2 2 2 2 2 2 2 2 2 2 2 2 2 2 2 2 2 2 2 2 2 2 2 2 2 2\u000aleft_child=2 3 5 7 8 11 13 17 16 18 15 23 29 -4 28 -6 -3 -2 -5 -9 -10 -11 -12 -1 -14 -15 27 -24 -7 -8\u000aright_child=1 4 6 9 10 14 12 19 20 21 22 -13 24 25 -16 -17 -18 -19 -20 -21 -22 -23 26 -25 -26 -27 -28 -29 -30 -31\u000aleaf_value=-1.7352074083840507 3.5278688143547279 10.144062094183806 0.31714770061699443 6.5612181799113429 15.757449882261216 -0.9158688312082266 1.6625136660414375 5.0027484897418084 12.719886951534161 8.2286454338748012 20.117477876237295 -1.3300667455486324 2.474894141351152 0.8249988378512404 -0.23306318057215916 17.769320666229312 11.394810246939612 4.2563045039687584 7.388526056017195 5.7340136154045087 14.122490509631588 9.102925417472127 27.396715079413521 -1.6101710560219307 2.9413978070537259 1.2489414844875792 22.096975752512616 21.953239767892022 -0.62979627649640302 2.0566614276423127\u000aleaf_count=130364 6461 2438 11510 4691 930 12161 4618 5270 1306 3089 309 35556 5247 5548 9857 978 2079 6630 4200 5646 1275 3073 36 75339 4673 6045 240 28 8241 4912\u000ainternal_value=0 145.092 -22.4883 115.184 266.541 -30.4536 28.3355 91.433 233.98 153.062 358.218 -32.7291 45.7694 13.6582 -12.3106 335.774 214.395 77.9358 139.041 107.62 268.255 173.293 428.077 -33.7883 53.893 20.9212 454.227 500.304 -16.0063 37.3133\u000ainternal_count=362750 48679 314071 39060 9619 271518 42553 24007 7098 15053 2521 241259 19450 23103 30259 1908 4517 13091 8891 10916 2581 6162 613 205703 9920 11593 304 64 20402 9530\u000ashrinkage=0.05\u000a\u000a\u000aTree=16\u000anum_leaves=31\u000anum_cat=0\u000asplit_feature=6 6 6 6 6 6 6 6 6 6 6 6 6 6 6 6 6 6 6 6 6 6 6 6 6 6 6 7 2 6\u000asplit_gain=1.06821e+09 1.59606e+08 1.14759e+08 3.033e+07 2.72197e+07 1.03554e+07 9.54981e+06 4.33288e+06 4.22867e+06 3.89677e+06 3.89458e+06 1.31002e+06 1.24409e+06 1.13013e+06 820182 814463 666050 598302 557147 522718 452123 442976 438539 225145 207710 186064 167796 155332 168477 134806\u000athreshold=213.50000000000003 484.50000000000006 73.500000000000014 332.50000000000006 702.50000000000011 137.50000000000003 26.500000000000004 398.50000000000006 861.50000000000011 269.50000000000006 576.50000000000011 171.50000000000003 9.5000000000000018 101.50000000000001 969.50000000000011 49.500000000000007 438.50000000000006 764.50000000000011 637.50000000000011 300.50000000000006 362.50000000000006 523.50000000000011 240.50000000000003 191.50000000000003 2.5000000000000004 119.50000000000001 15.500000000000002 147.50000000000003 5.5000000000000009 60.500000000000007\u000adecision_type=2 2 2 2 2 2 2 2 2 2 2 2 2 2 2 2 2 2 2 2 2 2 2 2 2 2 2 2 2 2\u000aleft_child=2 3 6 9 10 13 12 20 17 22 21 -7 24 -4 -10 -8 -9 -6 -12 -11 -5 -3 -2 -13 -1 -15 -14 28 -16 -17\u000aright_child=1 4 5 7 8 11 15 16 14 19 18 23 26 25 27 29 -18 -19 -20 -21 -22 -23 -24 -25 -26 -27 -28 -29 -30 -31\u000aleaf_value=-1.6484470781838554 3.3285693477875729 9.3924871004820432 0.25451183069712385 5.9782455301350987 14.447838608357916 1.7286472970975097 -0.84013244389182129 7.5396614886220235 18.399314270517372 4.6022838963487418 11.667175167956984 2.3077331676957549 -1.4071159849072012 0.7638203649049119 26.0268792046441 -0.48595961139752319 8.4892092222620956 16.206259045271871 13.055124588667836 5.2938292014854582 6.7023068020588745 10.420202617516015 3.9405637155990001 2.7713970850762433 -1.5400897448927822 1.1626983495644223 -1.2062207867829413 20.992126553853353 20.85557746887207 -0.15762725028055533\u000aleaf_count=130364 6023 2129 11659 4322 964 9557 19175 3911 613 5625 1660 5267 21716 6287 36 6240 3499 971 1281 5314 4302 2066 5695 5206 66934 5465 19936 240 28 6265\u000ainternal_value=0 137.837 -21.3639 108.744 250.536 26.347 -29.0224 142.027 333.112 85.1911 217.533 43.0388 -31.1853 12.0658 389.047 -12.708 159.761 306.605 245.434 98.7645 126.789 197.973 72.52 50.7643 -32.2337 18.9862 -26.2192 431.515 475.289 -6.4293\u000ainternal_count=362750 48679 314071 38691 9988 43441 270630 16034 2852 22657 7136 20030 238950 23411 917 31680 7410 1935 2941 10939 8624 4195 11718 10473 197298 11752 41652 304 64 12505\u000ashrinkage=0.05\u000a\u000a\u000aTree=17\u000anum_leaves=31\u000anum_cat=0\u000asplit_feature=6 6 6 6 6 6 6 6 6 6 6 6 6 6 6 6 6 6 6 6 6 6 6 6 6 6 7 2 6 6\u000asplit_gain=9.64055e+08 1.44055e+08 1.03592e+08 2.86476e+07 2.34193e+07 9.44792e+06 8.61979e+06 4.28133e+06 3.89731e+06 3.49334e+06 3.24911e+06 1.34781e+06 1.02777e+06 999034 689866 629768 579047 561970 478414 455764 426517 421989 325764 242251 185867 145935 140187 152050 135264 126929\u000athreshold=213.50000000000003 490.50000000000006 76.500000000000014 341.50000000000006 723.50000000000011 29.500000000000004 141.50000000000003 276.50000000000006 586.50000000000011 410.50000000000006 901.50000000000011 11.500000000000002 111.50000000000001 177.50000000000003 57.500000000000007 788.50000000000011 247.50000000000003 653.50000000000011 309.50000000000006 448.50000000000006 531.50000000000011 372.50000000000006 969.50000000000011 2.5000000000000004 93.500000000000014 157.50000000000003 147.50000000000003 5.5000000000000009 42.500000000000007 193.50000000000003\u000adecision_type=2 2 2 2 2 2 2 2 2 2 2 2 2 2 2 2 2 2 2 2 2 2 2 2 2 2 2 2 2 2\u000aleft_child=2 3 5 7 8 11 12 16 20 21 15 23 24 25 28 -6 -2 -10 -9 -11 -3 -5 -12 -1 -4 -8 27 -24 -7 -15\u000aright_child=1 4 6 9 10 14 13 18 17 19 22 -13 -14 29 -16 -17 -18 -19 -20 -21 -22 -23 26 -25 -26 -27 -28 -29 -30 -31\u000aleaf_value=-1.5660246309792656 3.2291317235034094 9.0789797108391763 0.19726423124102255 5.885330810726602 14.219107739848477 -0.81005309195112152 1.5389151523471454 4.5438152661045006 11.348086214672069 7.3828749071356219 18.191638642838857 -1.1954820371614676 1.0568272183313132 2.2756536484224918 -0.17158896990554318 16.03645811490486 3.9016396513113527 12.745531940535002 5.2069109388803172 8.2178955150123851 10.090202870875046 6.5903432710825065 24.725534354315865 -1.4533997911053671 0.56267654227516872 1.9218634820010607 19.942520262400311 19.812797982352123 -0.55202129028892066 2.6557580802977889\u000aleaf_count=130364 7516 2118 7047 4245 930 11113 4566 5769 1651 3490 309 36604 9288 4144 9238 978 5575 1275 5147 3073 2054 4245 36 75339 6875 5466 240 28 9354 4673\u000ainternal_value=0 130.945 -20.2957 103.95 240.567 -27.4371 25.8906 82.5051 211.16 138.151 323.362 -29.5006 12.9895 41.7765 -10.6049 303.013 70.3106 239.14 97.1294 155.477 191.537 124.757 386.698 -30.4955 7.55426 34.9513 409.94 451.524 -13.8425 49.5422\u000ainternal_count=362750 48679 314071 39060 9619 272012 42059 24007 7098 15053 2521 242307 23210 18849 29705 1908 13091 2926 10916 6563 4172 8490 613 205703 13922 10032 304 64 20467 8817\u000ashrinkage=0.05\u000a\u000a\u000aTree=18\u000anum_leaves=31\u000anum_cat=0\u000asplit_feature=6 6 6 6 6 6 6 6 6 6 6 6 6 6 6 6 6 6 6 6 6 6 6 6 6 6 6 7 2 6\u000asplit_gain=8.70072e+08 1.28613e+08 9.55105e+07 2.6227e+07 2.01724e+07 8.52675e+06 8.06897e+06 3.65883e+06 3.44069e+06 3.20376e+06 2.93232e+06 1.22019e+06 1.10092e+06 814715 622604 572362 524991 448346 425355 418198 371672 367308 294002 192175 169095 149234 147180 126519 137225 123371\u000athreshold=215.50000000000003 496.50000000000006 76.500000000000014 341.50000000000006 723.50000000000011 29.500000000000004 145.50000000000003 279.50000000000006 414.50000000000006 598.50000000000011 901.50000000000011 10.500000000000002 111.50000000000001 183.50000000000003 57.500000000000007 824.50000000000011 247.50000000000003 376.50000000000006 547.50000000000011 453.50000000000006 309.50000000000006 653.50000000000011 969.50000000000011 2.5000000000000004 91.500000000000014 16.500000000000004 165.50000000000003 147.50000000000003 5.5000000000000009 127.50000000000001\u000adecision_type=2 2 2 2 2 2 2 2 2 2 2 2 2 2 2 2 2 2 2 2 2 2 2 2 2 2 2 2 2 2\u000aleft_child=2 3 5 7 9 11 12 16 17 18 15 23 24 26 -7 -6 -2 -5 -3 -10 -9 -11 -12 -1 -4 -13 -8 28 -24 -14\u000aright_child=1 4 6 8 10 14 13 20 19 21 22 25 29 -15 -16 -17 -18 -19 -20 -21 -22 -23 27 -25 -26 -27 -28 -29 -30 -31\u000aleaf_value=-1.4877233919655937 3.0960033058849863 8.8393661452217334 0.16517478674470776 5.6233604353085633 13.787965463290163 -0.65751897623689592 1.5807527787966162 4.3488928543703027 7.1019781889012465 10.91522222638678 17.282056123307608 -1.2484051116060626 0.86022854078067434 2.4327843119508348 -0.16300951655575868 15.632400619945589 3.7298009087242061 6.3345647772834415 9.8626555518027903 7.9067084968169645 4.9465653713916335 12.108255415374158 23.48925715552436 -1.3856462949653165 0.51562750813989855 -1.0566693786674834 1.9563338577392628 18.945393683115643 18.822157723563059 1.2045651183814607\u000aleaf_count=130364 7056 2445 6229 4691 1282 20467 5613 5259 3501 1306 309 20017 5026 7693 9238 626 6085 4200 1737 2996 5147 1275 36 71341 7693 20585 4873 240 28 5392\u000ainternal_value=0 125.082 -19.1757 99.8633 230.846 -26.0653 24.8997 78.8823 131.969 202.386 307.193 -28.0256 12.9943 40.8399 -10.0746 287.862 67.7897 119.186 185.288 149.461 92.8903 230.091 367.363 -29.0324 7.17655 -23.0239 35.1058 389.443 428.948 20.7689\u000ainternal_count=362750 48219 314531 38935 9284 272012 42519 23547 15388 6763 2521 242307 24340 18179 29705 1908 13141 8891 4182 6497 10406 2581 613 201705 13922 40602 10486 304 64 10418\u000ashrinkage=0.05\u000a\u000a\u000aTree=19\u000anum_leaves=31\u000anum_cat=0\u000asplit_feature=6 6 6 6 6 6 6 6 6 6 6 6 6 6 6 6 6 6 6 6 6 6 6 6 7 2 6 6 6 6\u000asplit_gain=7.85333e+08 1.27159e+08 7.14414e+07 2.38116e+07 2.30065e+07 7.31097e+06 5.05231e+06 3.62828e+06 3.51956e+06 3.17135e+06 2.98416e+06 866843 865629 713899 618329 591936 534478 484053 441217 392150 390602 389902 385562 132923 114183 123846 113084 103032 95171 91568.5\u000athreshold=198.50000000000003 468.50000000000006 63.500000000000007 323.50000000000006 686.50000000000011 127.50000000000001 18.500000000000004 861.50000000000011 261.50000000000006 566.50000000000011 391.50000000000006 95.500000000000014 161.50000000000003 36.500000000000007 764.50000000000011 969.50000000000011 227.50000000000003 5.5000000000000009 515.50000000000011 291.50000000000006 430.50000000000006 356.50000000000006 624.50000000000011 82.500000000000014 147.50000000000003 5.5000000000000009 183.50000000000003 147.50000000000003 901.50000000000011 113.50000000000001\u000adecision_type=2 2 2 2 2 2 2 2 2 2 2 2 2 2 2 2 2 2 2 2 2 2 2 2 2 2 2 2 2 2\u000aleft_child=2 3 6 8 9 11 17 14 16 18 21 23 27 -8 -6 28 -2 -1 -3 -10 -12 -5 -11 -4 25 -17 -14 -7 -9 -13\u000aright_child=1 4 5 10 7 12 13 15 19 22 20 29 26 -15 -16 24 -18 -19 -20 -21 -22 -23 -24 -25 -26 -27 -28 -29 -30 -31\u000aleaf_value=-1.3956037378496955 2.5616428590877125 7.8180534008183589 -0.050066027468388299 4.9745967374517948 12.219489002227784 1.1604227711007753 -0.92873022183451226 15.171901180869654 3.7832162734873096 9.7852288204980979 6.31591764992121 0.54661043146431487 1.8212241024241125 -0.49940429686776594 13.901936665622385 22.314794307284885 3.1860932568403655 -1.2223559404583941 8.7724536409779983 4.3793478214236687 7.0643194024991551 5.6241039912772122 10.929599104297253 0.26742375079969294 17.998124885559083 17.881050545828682 2.1727269955833486 1.4887171497387961 16.417953950456045 0.84154038828739663\u000aleaf_count=174006 6749 2883 8730 4861 1248 5953 22259 304 5573 1714 3934 6732 5932 17138 971 36 6961 52477 2088 5463 3131 4404 1290 5297 240 28 3725 3993 309 4321\u000ainternal_value=0 113.505 -19.0735 87.8325 208.415 17.924 -25.2911 280.98 68.2738 179.881 117.471 6.61527 32.3923 -14.8394 259.114 333.892 57.5739 -27.1092 164.379 81.5662 132.952 105.667 205.533 1.39655 369.971 407.501 39.1362 25.8444 316 13.2382\u000ainternal_count=362750 52187 310563 41076 11111 44683 265880 3136 24746 7975 16330 25080 19603 39397 2219 917 13710 226483 4971 11036 7065 9265 3004 14027 304 64 9657 9946 613 11053\u000ashrinkage=0.05\u000a\u000a\u000aend of trees\u000a\u000afeature importances:\u000alabel=575\u000adayofweek=20\u000azone_id=5\u000a\u000aparameters:\u000a[boosting: gbdt]\u000a[objective: regression]\u000a[metric: l1,regression]\u000a[tree_learner: serial]\u000a[device_type: cpu]\u000a[data: ]\u000a[valid: ]\u000a[num_iterations: 100]\u000a[learning_rate: 0.05]\u000a[num_leaves: 31]\u000a[num_threads: -1]\u000a[max_depth: -1]\u000a[min_data_in_leaf: 20]\u000a[min_sum_hessian_in_leaf: 0.001]\u000a[bagging_fraction: 1]\u000a[bagging_freq: 0]\u000a[bagging_seed: 3]\u000a[feature_fraction: 1]\u000a[feature_fraction_seed: 2]\u000a[early_stopping_round: 0]\u000a[max_delta_step: 0]\u000a[lambda_l1: 0]\u000a[lambda_l2: 0]\u000a[min_gain_to_split: 0]\u000a[drop_rate: 0.1]\u000a[max_drop: 50]\u000a[skip_drop: 0.5]\u000a[xgboost_dart_mode: 0]\u000a[uniform_drop: 0]\u000a[drop_seed: 4]\u000a[top_rate: 0.2]\u000a[other_rate: 0.1]\u000a[min_data_per_group: 100]\u000a[max_cat_threshold: 32]\u000a[cat_l2: 10]\u000a[cat_smooth: 10]\u000a[max_cat_to_onehot: 4]\u000a[top_k: 20]\u000a[monotone_constraints: ]\u000a[feature_contri: ]\u000a[forcedsplits_filename: ]\u000a[refit_decay_rate: 0.9]\u000a[verbosity: -1]\u000a[max_bin: 255]\u000a[min_data_in_bin: 3]\u000a[bin_construct_sample_cnt: 200000]\u000a[histogram_pool_size: -1]\u000a[data_random_seed: 1]\u000a[output_model: LightGBM_model.txt]\u000a[snapshot_freq: -1]\u000a[input_model: ]\u000a[output_result: LightGBM_predict_result.txt]\u000a[initscore_filename: ]\u000a[valid_data_initscores: ]\u000a[pre_partition: 0]\u000a[enable_bundle: 1]\u000a[max_conflict_rate: 0]\u000a[is_enable_sparse: 1]\u000a[sparse_threshold: 0.8]\u000a[use_missing: 1]\u000a[zero_as_missing: 0]\u000a[two_round: 0]\u000a[save_binary: 0]\u000a[enable_load_from_binary_file: 1]\u000a[header: 0]\u000a[label_column: ]\u000a[weight_column: ]\u000a[group_column: ]\u000a[ignore_column: ]\u000a[categorical_feature: ]\u000a[predict_raw_score: 0]\u000a[predict_leaf_index: 0]\u000a[predict_contrib: 0]\u000a[num_iteration_predict: -1]\u000a[pred_early_stop: 0]\u000a[pred_early_stop_freq: 10]\u000a[pred_early_stop_margin: 10]\u000a[convert_model_language: ]\u000a[convert_model: gbdt_prediction.cpp]\u000a[num_class: 1]\u000a[is_unbalance: 0]\u000a[scale_pos_weight: 1]\u000a[sigmoid: 1]\u000a[boost_from_average: 1]\u000a[reg_sqrt: 0]\u000a[alpha: 0.9]\u000a[fair_c: 1]\u000a[poisson_max_delta_step: 0.7]\u000a[tweedie_variance_power: 1.5]\u000a[max_position: 20]\u000a[label_gain: ]\u000a[metric_freq: 1]\u000a[is_provide_training_metric: 0]\u000a[eval_at: ]\u000a[num_machines: 1]\u000a[local_listen_port: 12400]\u000a[time_out: 120]\u000a[machine_list_filename: ]\u000a[machines: ]\u000a[gpu_platform_id: -1]\u000a[gpu_device_id: -1]\u000a[gpu_use_dp: 0]\u000a\u000aend of parameters\u000a\u000apandas_categorical:[]\u000a
p169
sS'_Booster__num_inner_eval'
p170
I2
sS'_Booster__set_objective_to_none'
p171
I00
sS'network'
p172
I00
sS'_Booster__train_data_name'
p173
S'training'
p174
sS'_Booster__num_dataset'
p175
I0
sS'pandas_categorical'
p176
(lp177
sS'_Booster__need_reload_eval_info'
p178
I00
sS'params'
p179
(dp180
g6
I31
sg7
F0.0
sg8
I-1
sS'colsample_bytree'
p181
F1.0
sS'verbose'
p182
I-1
sS'subsample_for_bin'
p183
I200000
sS'random_state'
p184
NsS'learning_rate'
p185
F0.05
sS'min_child_weight'
p186
F0.001
sS'min_split_gain'
p187
F0.0
sS'subsample'
p188
F1.0
sS'reg_lambda'
p189
F0.0
sS'subsample_freq'
p190
I0
sS'objective'
p191
S'regression'
p192
sS'min_child_samples'
p193
I20
sS'max_depth'
p194
I-1
sS'metric'
p195
c__builtin__
set
p196
((lp197
g192
aS'l1'
p198
atp199
Rp200
sS'boosting_type'
p201
S'gbdt'
p202
ssS'name_valid_sets'
p203
(lp204
g11
asS'_Booster__num_class'
p205
I1
sS'_Booster__name_inner_eval'
p206
(lp207
g85
ag16
asbsS'_objective'
p208
g192
sS'_classes'
p209
NsS'n_estimators'
p210
I20
sg190
I0
sS'_n_classes'
p211
NsS'importance_type'
p212
S'split'
p213
sg201
g202
sg181
F1.0
sS'silent'
p214
I01
sg183
I200000
sS'_other_params'
p215
(dp216
sg193
I20
sS'_n_features'
p217
I8
sS'_best_score'
p218
g166
sg186
F0.001
sg187
F0.0
sg185
F0.05
sg188
F1.0
sg189
F0.0
sg184
Nsg191
NsS'_best_iteration'
p219
I20
sS'class_weight'
p220
Nsg194
I-1
sb.